target datalayout = "e-m:e-p270:32:32-p271:32:32-p272:64:64-i64:64-i128:128-f80:128-n8:16:32:64-S128"
target triple = "x86_64-pc-linux-gnu"

%struct._address = type { i32, i32, ptr, ptr }
%struct.iax_circuit_key = type { %struct._address, i32, i32, i32, [16 x i8] }

; Function Attrs: inlinehint nounwind null_pointer_is_valid sspstrong uwtable
define internal i32 @add_address_to_hash(i32 noundef %0, ptr noundef %1) #3 {
  %3 = alloca i32, align 4
  %4 = alloca ptr, align 8
  %5 = alloca ptr, align 8
  %6 = alloca i32, align 4
  store i32 %0, ptr %3, align 4
  store ptr %1, ptr %4, align 8
  call void @llvm.lifetime.start.p0(i64 8, ptr %5) #14
  %7 = load ptr, ptr %4, align 8
  %8 = getelementptr inbounds nuw %struct._address, ptr %7, i32 0, i32 2
  %9 = load ptr, ptr %8, align 8
  store ptr %9, ptr %5, align 8
  call void @llvm.lifetime.start.p0(i64 4, ptr %6) #14
  store i32 0, ptr %6, align 4
  br label %10

10:                                               ; preds = %33, %2
  %11 = load i32, ptr %6, align 4
  %12 = load ptr, ptr %4, align 8
  %13 = getelementptr inbounds nuw %struct._address, ptr %12, i32 0, i32 1
  %14 = load i32, ptr %13, align 4
  %15 = icmp slt i32 %11, %14
  br i1 %15, label %16, label %36

16:                                               ; preds = %10
  %17 = load ptr, ptr %5, align 8
  %18 = load i32, ptr %6, align 4
  %19 = sext i32 %18 to i64
  %20 = getelementptr i8, ptr %17, i64 %19
  %21 = load i8, ptr %20, align 1
  %22 = zext i8 %21 to i32
  %23 = load i32, ptr %3, align 4
  %24 = add i32 %23, %22
  store i32 %24, ptr %3, align 4
  %25 = load i32, ptr %3, align 4
  %26 = shl i32 %25, 10
  %27 = load i32, ptr %3, align 4
  %28 = add i32 %27, %26
  store i32 %28, ptr %3, align 4
  %29 = load i32, ptr %3, align 4
  %30 = lshr i32 %29, 6
  %31 = load i32, ptr %3, align 4
  %32 = xor i32 %31, %30
  store i32 %32, ptr %3, align 4
  br label %33

33:                                               ; preds = %16
  %34 = load i32, ptr %6, align 4
  %35 = add i32 %34, 1
  store i32 %35, ptr %6, align 4
  br label %10, !llvm.loop !17

36:                                               ; preds = %10
  %37 = load i32, ptr %3, align 4
  call void @llvm.lifetime.end.p0(i64 4, ptr %6) #14
  call void @llvm.lifetime.end.p0(i64 8, ptr %5) #14
  ret i32 %37
}

; Function Attrs: null_pointer_is_valid sspstrong uwtable
define internal i32 @iax_circuit_hash(ptr noundef %0) #0 {
  %2 = alloca ptr, align 8
  %3 = alloca ptr, align 8
  %4 = alloca i32, align 4
  store ptr %0, ptr %2, align 8
  call void @llvm.lifetime.start.p0(i64 8, ptr %3) #14
  %5 = load ptr, ptr %2, align 8
  store ptr %5, ptr %3, align 8
  call void @llvm.lifetime.start.p0(i64 4, ptr %4) #14
  store i32 0, ptr %4, align 4
  %6 = load i32, ptr %4, align 4
  %7 = load ptr, ptr %3, align 8
  %8 = getelementptr inbounds nuw %struct.iax_circuit_key, ptr %7, i32 0, i32 0
  %9 = call i32 @add_address_to_hash(i32 noundef %6, ptr noundef %8)
  store i32 %9, ptr %4, align 4
  %10 = load ptr, ptr %3, align 8
  %11 = getelementptr inbounds nuw %struct.iax_circuit_key, ptr %10, i32 0, i32 1
  %12 = load i32, ptr %11, align 8
  %13 = load i32, ptr %4, align 4
  %14 = add i32 %13, %12
  store i32 %14, ptr %4, align 4
  %15 = load ptr, ptr %3, align 8
  %16 = getelementptr inbounds nuw %struct.iax_circuit_key, ptr %15, i32 0, i32 2
  %17 = load i32, ptr %16, align 4
  %18 = load i32, ptr %4, align 4
  %19 = add i32 %18, %17
  store i32 %19, ptr %4, align 4
  %20 = load ptr, ptr %3, align 8
  %21 = getelementptr inbounds nuw %struct.iax_circuit_key, ptr %20, i32 0, i32 3
  %22 = load i32, ptr %21, align 8
  %23 = load i32, ptr %4, align 4
  %24 = add i32 %23, %22
  store i32 %24, ptr %4, align 4
  %25 = load i32, ptr %4, align 4
  call void @llvm.lifetime.end.p0(i64 4, ptr %4) #14
  call void @llvm.lifetime.end.p0(i64 8, ptr %3) #14
  ret i32 %25
}